target datalayout = "e-m:e-p270:32:32-p271:32:32-p272:64:64-i64:64-i128:128-f80:128-n8:16:32:64-S128"
target triple = "x86_64-unknown-linux-gnu"

%"class.sat::literal" = type { i32 }
%class.svector.13 = type { %class.vector.14 }
%class.vector.14 = type { ptr }
%"class.smt::theory_bv" = type { %"class.smt::theory.base", %"struct.smt::theory_bv_stats", %class.bv_util, %class.arith_util, %class.bit_blaster, %class.trail_stack, %class.union_find, %class.vector.5, %class.ptr_vector.1, %class.svector, %class.vector.6, %class.ptr_vector.7, %class.ptr_vector, %class.map, %class.vector.9, [256 x i8], %class.svector.10, i32, %class.vector.12, [256 x i8], %class.svector, %class.svector, %class.svector.13, %class.svector.15, i8, [2 x %class.svector.17], ptr }
%"class.smt::theory.base" = type <{ ptr, i32, [4 x i8], ptr, ptr, %class.ptr_vector, %class.svector, i32, i8 }>
%"struct.smt::theory_bv_stats" = type { i32, i32, i32, i32, i32, i32 }
%class.bv_util = type { %class.bv_recognizers, ptr, ptr }
%class.bv_recognizers = type { i32 }
%class.arith_util = type { ptr, ptr }
%class.bit_blaster = type { %class.bit_blaster_tpl, %class.bv_util, %class.bool_rewriter }
%class.bit_blaster_tpl = type { %class.bit_blaster_cfg, i64 }
%class.bit_blaster_cfg = type { ptr, ptr, ptr }
%class.bool_rewriter = type { ptr, i8, i8, i8, i8, i8, i8, i32, i8, i32, i32, i8, %class.ptr_vector.1, %class.ptr_vector.1, %class.svector, %class.svector }
%class.trail_stack = type { %class.ptr_vector.3, %class.svector, %class.region }
%class.ptr_vector.3 = type { %class.vector.4 }
%class.vector.4 = type { ptr }
%class.region = type { ptr, ptr, ptr, ptr, ptr }
%class.union_find = type { ptr, ptr, %class.svector, %class.svector, %class.svector, %"class.union_find<smt::theory_bv>::mk_var_trail" }
%"class.union_find<smt::theory_bv>::mk_var_trail" = type { %class.trail, ptr }
%class.trail = type { ptr }
%class.vector.5 = type { ptr }
%class.ptr_vector.1 = type { %class.vector.2 }
%class.vector.2 = type { ptr }
%class.vector.6 = type { ptr }
%class.ptr_vector.7 = type { %class.vector.8 }
%class.vector.8 = type { ptr }
%class.ptr_vector = type { %class.vector }
%class.vector = type { ptr }
%class.map = type { %class.table2map }
%class.table2map = type { %class.core_hashtable }
%class.core_hashtable = type <{ %"struct.table2map<default_map_entry<std::pair<rational, unsigned int>, int>, pair_hash<obj_hash<rational>, unsigned_hash>, default_eq<std::pair<rational, unsigned int>>>::entry_hash_proc", [7 x i8], ptr, i32, i32, i32, [4 x i8] }>
%"struct.table2map<default_map_entry<std::pair<rational, unsigned int>, int>, pair_hash<obj_hash<rational>, unsigned_hash>, default_eq<std::pair<rational, unsigned int>>>::entry_hash_proc" = type { %struct.pair_hash }
%struct.pair_hash = type { %struct.unsigned_hash }
%struct.unsigned_hash = type { i8 }
%class.vector.9 = type { ptr }
%class.svector.10 = type { %class.vector.11 }
%class.vector.11 = type { ptr }
%class.vector.12 = type { ptr }
%class.svector = type { %class.vector.0 }
%class.vector.0 = type { ptr }
%class.svector.15 = type { %class.vector.16 }
%class.vector.16 = type { ptr }
%class.svector.17 = type { %class.vector.18 }
%class.vector.18 = type { ptr }
%"class.smt::theory" = type <{ ptr, i32, [4 x i8], ptr, ptr, %class.ptr_vector, %class.svector, i32, i8, [3 x i8] }>

; Function Attrs: mustprogress nounwind uwtable
define linkonce_odr hidden noundef i32 @_ZNK3sat7literal3varEv(ptr noundef nonnull align 4 dereferenceable(4) %this) #4 comdat align 2 {
entry:
  %this.addr = alloca ptr, align 8
  store ptr %this, ptr %this.addr, align 8
  %this1 = load ptr, ptr %this.addr, align 8
  %m_val = getelementptr inbounds %"class.sat::literal", ptr %this1, i32 0, i32 0
  %0 = load i32, ptr %m_val, align 4
  %shr = lshr i32 %0, 1
  ret i32 %shr
}

; Function Attrs: mustprogress nounwind uwtable
define linkonce_odr hidden noundef nonnull align 4 dereferenceable(4) ptr @_ZNK6vectorIN3sat7literalELb0EjEixEj(ptr noundef nonnull align 8 dereferenceable(8) %this, i32 noundef %idx) #4 comdat align 2 {
entry:
  %this.addr = alloca ptr, align 8
  %idx.addr = alloca i32, align 4
  store ptr %this, ptr %this.addr, align 8
  store i32 %idx, ptr %idx.addr, align 4
  %this1 = load ptr, ptr %this.addr, align 8
  %m_data = getelementptr inbounds %class.vector.14, ptr %this1, i32 0, i32 0
  %0 = load ptr, ptr %m_data, align 8
  %1 = load i32, ptr %idx.addr, align 4
  %idxprom = zext i32 %1 to i64
  %arrayidx = getelementptr inbounds %"class.sat::literal", ptr %0, i64 %idxprom
  ret ptr %arrayidx
}

; Function Attrs: mustprogress nounwind uwtable
define linkonce_odr hidden noundef i32 @_ZNK6vectorIN3sat7literalELb0EjE4sizeEv(ptr noundef nonnull align 8 dereferenceable(8) %this) #4 comdat align 2 {
entry:
  %retval = alloca i32, align 4
  %this.addr = alloca ptr, align 8
  store ptr %this, ptr %this.addr, align 8
  %this1 = load ptr, ptr %this.addr, align 8
  %m_data = getelementptr inbounds %class.vector.14, ptr %this1, i32 0, i32 0
  %0 = load ptr, ptr %m_data, align 8
  %cmp = icmp eq ptr %0, null
  br i1 %cmp, label %if.then, label %if.end

if.then:                                          ; preds = %entry
  store i32 0, ptr %retval, align 4
  br label %return

if.end:                                           ; preds = %entry
  %m_data2 = getelementptr inbounds %class.vector.14, ptr %this1, i32 0, i32 0
  %1 = load ptr, ptr %m_data2, align 8
  %arrayidx = getelementptr inbounds i32, ptr %1, i64 -1
  %2 = load i32, ptr %arrayidx, align 4
  store i32 %2, ptr %retval, align 4
  br label %return

return:                                           ; preds = %if.end, %if.then
  %3 = load i32, ptr %retval, align 4
  ret i32 %3
}

; Function Attrs: mustprogress nounwind uwtable
define linkonce_odr hidden noundef nonnull align 8 dereferenceable(8) ptr @_ZNK6vectorI7svectorIN3sat7literalEjELb1EjEixEj(ptr noundef nonnull align 8 dereferenceable(8) %this, i32 noundef %idx) #4 comdat align 2 {
entry:
  %this.addr = alloca ptr, align 8
  %idx.addr = alloca i32, align 4
  store ptr %this, ptr %this.addr, align 8
  store i32 %idx, ptr %idx.addr, align 4
  %this1 = load ptr, ptr %this.addr, align 8
  %m_data = getelementptr inbounds %class.vector.5, ptr %this1, i32 0, i32 0
  %0 = load ptr, ptr %m_data, align 8
  %1 = load i32, ptr %idx.addr, align 4
  %idxprom = zext i32 %1 to i64
  %arrayidx = getelementptr inbounds %class.svector.13, ptr %0, i64 %idxprom
  ret ptr %arrayidx
}

; Function Attrs: mustprogress nounwind uwtable
define linkonce_odr hidden noundef i32 @_ZNK3smt6theory13get_family_idEv(ptr noundef nonnull align 8 dereferenceable(53) %this) #4 comdat align 2 {
entry:
  %this.addr = alloca ptr, align 8
  store ptr %this, ptr %this.addr, align 8
  %this1 = load ptr, ptr %this.addr, align 8
  %m_id = getelementptr inbounds %"class.smt::theory", ptr %this1, i32 0, i32 1
  %0 = load i32, ptr %m_id, align 8
  ret i32 %0
}

; Function Attrs: mustprogress uwtable
define hidden noundef i32 @_ZNK3smt9theory_bv7get_bitEjPNS_5enodeE(ptr noundef nonnull align 8 dereferenceable(1048) %this, i32 noundef %bit, ptr noundef %n) #5 align 2 {
entry:
  %retval = alloca i32, align 4
  %this.addr = alloca ptr, align 8
  %bit.addr = alloca i32, align 4
  %n.addr = alloca ptr, align 8
  %v = alloca i32, align 4
  %bits = alloca ptr, align 8
  store ptr %this, ptr %this.addr, align 8
  store i32 %bit, ptr %bit.addr, align 4
  store ptr %n, ptr %n.addr, align 8
  %this1 = load ptr, ptr %this.addr, align 8
  %0 = load ptr, ptr %n.addr, align 8
  %call = call noundef i32 @_ZNK3smt6theory13get_family_idEv(ptr noundef nonnull align 8 dereferenceable(53) %this1)
  %call2 = call noundef i32 @_ZNK3smt5enode10get_th_varEi(ptr noundef nonnull align 8 dereferenceable(112) %0, i32 noundef %call)
  store i32 %call2, ptr %v, align 4
  %1 = load i32, ptr %v, align 4
  %cmp = icmp eq i32 %1, -1
  br i1 %cmp, label %if.then, label %if.end

if.then:                                          ; preds = %entry
  store i32 2147483647, ptr %retval, align 4
  br label %return

if.end:                                           ; preds = %entry
  %m_bits = getelementptr inbounds %"class.smt::theory_bv", ptr %this1, i32 0, i32 7
  %2 = load i32, ptr %v, align 4
  %call3 = call noundef nonnull align 8 dereferenceable(8) ptr @_ZNK6vectorI7svectorIN3sat7literalEjELb1EjEixEj(ptr noundef nonnull align 8 dereferenceable(8) %m_bits, i32 noundef %2)
  store ptr %call3, ptr %bits, align 8
  %3 = load i32, ptr %bit.addr, align 4
  %4 = load ptr, ptr %bits, align 8
  %call4 = call noundef i32 @_ZNK6vectorIN3sat7literalELb0EjE4sizeEv(ptr noundef nonnull align 8 dereferenceable(8) %4)
  %cmp5 = icmp uge i32 %3, %call4
  br i1 %cmp5, label %if.then6, label %if.end7

if.then6:                                         ; preds = %if.end
  store i32 2147483647, ptr %retval, align 4
  br label %return

if.end7:                                          ; preds = %if.end
  %5 = load ptr, ptr %bits, align 8
  %6 = load i32, ptr %bit.addr, align 4
  %call8 = call noundef nonnull align 4 dereferenceable(4) ptr @_ZNK6vectorIN3sat7literalELb0EjEixEj(ptr noundef nonnull align 8 dereferenceable(8) %5, i32 noundef %6)
  %call9 = call noundef i32 @_ZNK3sat7literal3varEv(ptr noundef nonnull align 4 dereferenceable(4) %call8)
  store i32 %call9, ptr %retval, align 4
  br label %return

return:                                           ; preds = %if.end7, %if.then6, %if.then
  %7 = load i32, ptr %retval, align 4
  ret i32 %7
}