; Function Attrs: mustprogress uwtable
define hidden noundef i32 @_ZNK3smt9theory_bv7get_bitEjPNS_5enodeE(ptr nocapture noundef nonnull readonly align 8 dereferenceable(1048) %this, i32 noundef %bit, ptr noundef nonnull %n) local_unnamed_addr #3 align 2 {
entry:
  %m_id.i = getelementptr inbounds i8, ptr %this, i64 8
  %0 = load i32, ptr %m_id.i, align 8
  %call2 = tail call noundef i32 @_ZNK3smt5enode10get_th_varEi(ptr noundef nonnull align 8 dereferenceable(112) %n, i32 noundef %0)
  %cmp = icmp eq i32 %call2, -1
  br i1 %cmp, label %return, label %if.end

if.end:                                           ; preds = %entry
  %m_bits = getelementptr inbounds i8, ptr %this, i64 360
  %1 = load ptr, ptr %m_bits, align 8
  %idxprom.i = zext i32 %call2 to i64
  %arrayidx.i = getelementptr inbounds %class.svector.13, ptr %1, i64 %idxprom.i
  %2 = load ptr, ptr %arrayidx.i, align 8
  %cmp.i = icmp eq ptr %2, null
  br i1 %cmp.i, label %return, label %_ZNK6vectorIN3sat7literalELb0EjE4sizeEv.exit

_ZNK6vectorIN3sat7literalELb0EjE4sizeEv.exit:     ; preds = %if.end
  %arrayidx.i4 = getelementptr inbounds i8, ptr %2, i64 -4
  %3 = load i32, ptr %arrayidx.i4, align 4
  %cmp5.not = icmp ugt i32 %3, %bit
  br i1 %cmp5.not, label %if.end7, label %return

if.end7:                                          ; preds = %_ZNK6vectorIN3sat7literalELb0EjE4sizeEv.exit
  %idxprom.i5 = zext i32 %bit to i64
  %arrayidx.i6 = getelementptr inbounds %"class.sat::literal", ptr %2, i64 %idxprom.i5
  %4 = load i32, ptr %arrayidx.i6, align 4
  %shr.i = lshr i32 %4, 1
  br label %return

return:                                           ; preds = %if.end, %_ZNK6vectorIN3sat7literalELb0EjE4sizeEv.exit, %entry, %if.end7
  %retval.0 = phi i32 [ %shr.i, %if.end7 ], [ 2147483647, %entry ], [ 2147483647, %_ZNK6vectorIN3sat7literalELb0EjE4sizeEv.exit ], [ 2147483647, %if.end ]
  ret i32 %retval.0
}